target datalayout = "e-m:e-p270:32:32-p271:32:32-p272:64:64-i64:64-i128:128-f80:128-n8:16:32:64-S128"
target triple = "x86_64-pc-linux-gnu"

%struct.mempacket_test_ctx_st = type { ptr, i16, i32, i32, i32, i32, i32, i32, i32, i32 }
%struct.mempacket_st = type { ptr, i32, i32, i32 }

; Function Attrs: inlinehint nounwind uwtable
define internal ptr @sk_MEMPACKET_value(ptr noundef %0, i32 noundef %1) #3 {
  %3 = alloca ptr, align 8
  %4 = alloca i32, align 4
  store ptr %0, ptr %3, align 8, !tbaa !43
  store i32 %1, ptr %4, align 4, !tbaa !13
  %5 = load ptr, ptr %3, align 8, !tbaa !43
  %6 = load i32, ptr %4, align 4, !tbaa !13
  %7 = call ptr @OPENSSL_sk_value(ptr noundef %5, i32 noundef %6)
  ret ptr %7
}

; Function Attrs: inlinehint nounwind uwtable
define internal i32 @sk_MEMPACKET_num(ptr noundef %0) #3 {
  %2 = alloca ptr, align 8
  store ptr %0, ptr %2, align 8, !tbaa !43
  %3 = load ptr, ptr %2, align 8, !tbaa !43
  %4 = call i32 @OPENSSL_sk_num(ptr noundef %3)
  ret i32 %4
}

; Function Attrs: nounwind uwtable
define internal i64 @mempacket_test_ctrl(ptr noundef %0, i32 noundef %1, i64 noundef %2, ptr noundef %3) #0 {
  %5 = alloca ptr, align 8
  %6 = alloca i32, align 4
  %7 = alloca i64, align 8
  %8 = alloca ptr, align 8
  %9 = alloca i64, align 8
  %10 = alloca ptr, align 8
  %11 = alloca ptr, align 8
  store ptr %0, ptr %5, align 8, !tbaa !9
  store i32 %1, ptr %6, align 4, !tbaa !13
  store i64 %2, ptr %7, align 8, !tbaa !15
  store ptr %3, ptr %8, align 8, !tbaa !17
  call void @llvm.lifetime.start.p0(i64 8, ptr %9) #10
  store i64 1, ptr %9, align 8, !tbaa !15
  call void @llvm.lifetime.start.p0(i64 8, ptr %10) #10
  %12 = load ptr, ptr %5, align 8, !tbaa !9
  %13 = call ptr @BIO_get_data(ptr noundef %12)
  store ptr %13, ptr %10, align 8, !tbaa !18
  call void @llvm.lifetime.start.p0(i64 8, ptr %11) #10
  %14 = load i32, ptr %6, align 4, !tbaa !13
  switch i32 %14, label %68 [
    i32 2, label %15
    i32 8, label %23
    i32 9, label %27
    i32 13, label %31
    i32 10, label %32
    i32 11, label %46
    i32 32768, label %47
    i32 65536, label %52
    i32 98304, label %57
    i32 131072, label %62
    i32 1, label %67
    i32 12, label %67
    i32 6, label %67
    i32 7, label %67
  ]

15:                                               ; preds = %4
  %16 = load ptr, ptr %10, align 8, !tbaa !18
  %17 = getelementptr inbounds nuw %struct.mempacket_test_ctx_st, ptr %16, i32 0, i32 0
  %18 = load ptr, ptr %17, align 8, !tbaa !20
  %19 = call i32 @sk_MEMPACKET_num(ptr noundef %18)
  %20 = icmp eq i32 %19, 0
  %21 = zext i1 %20 to i32
  %22 = sext i32 %21 to i64
  store i64 %22, ptr %9, align 8, !tbaa !15
  br label %69

23:                                               ; preds = %4
  %24 = load ptr, ptr %5, align 8, !tbaa !9
  %25 = call i32 @BIO_get_shutdown(ptr noundef %24)
  %26 = sext i32 %25 to i64
  store i64 %26, ptr %9, align 8, !tbaa !15
  br label %69

27:                                               ; preds = %4
  %28 = load ptr, ptr %5, align 8, !tbaa !9
  %29 = load i64, ptr %7, align 8, !tbaa !15
  %30 = trunc i64 %29 to i32
  call void @BIO_set_shutdown(ptr noundef %28, i32 noundef %30)
  br label %69

31:                                               ; preds = %4
  store i64 0, ptr %9, align 8, !tbaa !15
  br label %69

32:                                               ; preds = %4
  %33 = load ptr, ptr %10, align 8, !tbaa !18
  %34 = getelementptr inbounds nuw %struct.mempacket_test_ctx_st, ptr %33, i32 0, i32 0
  %35 = load ptr, ptr %34, align 8, !tbaa !20
  %36 = call ptr @sk_MEMPACKET_value(ptr noundef %35, i32 noundef 0)
  store ptr %36, ptr %11, align 8, !tbaa !24
  %37 = load ptr, ptr %11, align 8, !tbaa !24
  %38 = icmp eq ptr %37, null
  br i1 %38, label %39, label %40

39:                                               ; preds = %32
  store i64 0, ptr %9, align 8, !tbaa !15
  br label %45

40:                                               ; preds = %32
  %41 = load ptr, ptr %11, align 8, !tbaa !24
  %42 = getelementptr inbounds nuw %struct.mempacket_st, ptr %41, i32 0, i32 1
  %43 = load i32, ptr %42, align 8, !tbaa !29
  %44 = sext i32 %43 to i64
  store i64 %44, ptr %9, align 8, !tbaa !15
  br label %45

45:                                               ; preds = %40, %39
  br label %69

46:                                               ; preds = %4
  store i64 1, ptr %9, align 8, !tbaa !15
  br label %69

47:                                               ; preds = %4
  %48 = load i64, ptr %7, align 8, !tbaa !15
  %49 = trunc i64 %48 to i32
  %50 = load ptr, ptr %10, align 8, !tbaa !18
  %51 = getelementptr inbounds nuw %struct.mempacket_test_ctx_st, ptr %50, i32 0, i32 7
  store i32 %49, ptr %51, align 8, !tbaa !39
  br label %69

52:                                               ; preds = %4
  %53 = load i64, ptr %7, align 8, !tbaa !15
  %54 = trunc i64 %53 to i32
  %55 = load ptr, ptr %10, align 8, !tbaa !18
  %56 = getelementptr inbounds nuw %struct.mempacket_test_ctx_st, ptr %55, i32 0, i32 8
  store i32 %54, ptr %56, align 4, !tbaa !32
  br label %69

57:                                               ; preds = %4
  %58 = load ptr, ptr %10, align 8, !tbaa !18
  %59 = getelementptr inbounds nuw %struct.mempacket_test_ctx_st, ptr %58, i32 0, i32 8
  %60 = load i32, ptr %59, align 4, !tbaa !32
  %61 = sext i32 %60 to i64
  store i64 %61, ptr %9, align 8, !tbaa !15
  br label %69

62:                                               ; preds = %4
  %63 = load i64, ptr %7, align 8, !tbaa !15
  %64 = trunc i64 %63 to i32
  %65 = load ptr, ptr %10, align 8, !tbaa !18
  %66 = getelementptr inbounds nuw %struct.mempacket_test_ctx_st, ptr %65, i32 0, i32 9
  store i32 %64, ptr %66, align 8, !tbaa !41
  br label %69

67:                                               ; preds = %4, %4, %4, %4
  br label %68

68:                                               ; preds = %4, %67
  store i64 0, ptr %9, align 8, !tbaa !15
  br label %69

69:                                               ; preds = %68, %62, %57, %52, %47, %46, %45, %31, %27, %23, %15
  %70 = load i64, ptr %9, align 8, !tbaa !15
  call void @llvm.lifetime.end.p0(i64 8, ptr %11) #10
  call void @llvm.lifetime.end.p0(i64 8, ptr %10) #10
  call void @llvm.lifetime.end.p0(i64 8, ptr %9) #10
  ret i64 %70
}