; Function Attrs: nounwind uwtable
define internal range(i64 -2147483648, 2147483648) i64 @mempacket_test_ctrl(ptr noundef %0, i32 noundef %1, i64 noundef %2, ptr readnone captures(none) %3) #0 {
  %5 = tail call ptr @BIO_get_data(ptr noundef %0) #14
  switch i32 %1, label %37 [
    i32 2, label %6
    i32 8, label %11
    i32 9, label %14
    i32 131072, label %34
    i32 10, label %16
    i32 11, label %38
    i32 32768, label %24
    i32 65536, label %27
    i32 98304, label %30
  ]

6:                                                ; preds = %4
  %7 = load ptr, ptr %5, align 8, !tbaa !15
  %8 = tail call i32 @OPENSSL_sk_num(ptr noundef %7) #14
  %9 = icmp eq i32 %8, 0
  %10 = zext i1 %9 to i64
  br label %38

11:                                               ; preds = %4
  %12 = tail call i32 @BIO_get_shutdown(ptr noundef %0) #14
  %13 = sext i32 %12 to i64
  br label %38

14:                                               ; preds = %4
  %15 = trunc i64 %2 to i32
  tail call void @BIO_set_shutdown(ptr noundef %0, i32 noundef %15) #14
  br label %38

16:                                               ; preds = %4
  %17 = load ptr, ptr %5, align 8, !tbaa !15
  %18 = tail call ptr @OPENSSL_sk_value(ptr noundef %17, i32 noundef 0) #14
  %19 = icmp eq ptr %18, null
  br i1 %19, label %38, label %20

20:                                               ; preds = %16
  %21 = getelementptr inbounds nuw i8, ptr %18, i64 8
  %22 = load i32, ptr %21, align 8, !tbaa !24
  %23 = sext i32 %22 to i64
  br label %38

24:                                               ; preds = %4
  %25 = trunc i64 %2 to i32
  %26 = getelementptr inbounds nuw i8, ptr %5, i64 32
  store i32 %25, ptr %26, align 8, !tbaa !32
  br label %38

27:                                               ; preds = %4
  %28 = trunc i64 %2 to i32
  %29 = getelementptr inbounds nuw i8, ptr %5, i64 36
  store i32 %28, ptr %29, align 4, !tbaa !27
  br label %38

30:                                               ; preds = %4
  %31 = getelementptr inbounds nuw i8, ptr %5, i64 36
  %32 = load i32, ptr %31, align 4, !tbaa !27
  %33 = sext i32 %32 to i64
  br label %38

34:                                               ; preds = %4
  %35 = trunc i64 %2 to i32
  %36 = getelementptr inbounds nuw i8, ptr %5, i64 40
  store i32 %35, ptr %36, align 8, !tbaa !34
  br label %38

37:                                               ; preds = %4
  br label %38

38:                                               ; preds = %4, %16, %20, %37, %34, %30, %27, %24, %14, %11, %6
  %.0 = phi i64 [ 0, %37 ], [ 1, %34 ], [ %33, %30 ], [ 1, %27 ], [ 1, %24 ], [ %23, %20 ], [ 1, %14 ], [ %13, %11 ], [ %10, %6 ], [ 0, %16 ], [ 1, %4 ]
  ret i64 %.0
}